target datalayout = "e-m:e-p270:32:32-p271:32:32-p272:64:64-i64:64-i128:128-f80:128-n8:16:32:64-S128"
target triple = "x86_64-pc-linux-gnu"

%"class.llvm::SDNode" = type { %"class.llvm::FoldingSetBase::Node", %"class.llvm::ilist_node", i32, %"struct.llvm::SDNodeFlags", %union.anon, i16, i32, ptr, ptr, ptr, i16, i16, i32, %"class.llvm::DebugLoc", i32, i32 }
%"class.llvm::FoldingSetBase::Node" = type { ptr }
%"class.llvm::ilist_node" = type { %"class.llvm::ilist_node_impl" }
%"class.llvm::ilist_node_impl" = type { %"class.llvm::ilist_node_base" }
%"class.llvm::ilist_node_base" = type { %"class.llvm::ilist_detail::node_base_prevnext" }
%"class.llvm::ilist_detail::node_base_prevnext" = type { ptr, ptr }
%"struct.llvm::SDNodeFlags" = type { i16 }
%union.anon = type { %"class.llvm::SDNode::LSBaseSDNodeBitfields" }
%"class.llvm::SDNode::LSBaseSDNodeBitfields" = type { i16 }
%"class.llvm::DebugLoc" = type { %"class.llvm::TypedTrackingMDRef" }
%"class.llvm::TypedTrackingMDRef" = type { %"class.llvm::TrackingMDRef" }
%"class.llvm::TrackingMDRef" = type { ptr }
%"class.llvm::SDValue" = type <{ ptr, i32, [4 x i8] }>
%"class.llvm::SDUse" = type { %"class.llvm::SDValue", ptr, ptr, ptr }
%"class.llvm::iterator_range" = type { %"class.llvm::SDNode::use_iterator", %"class.llvm::SDNode::use_iterator" }
%"class.llvm::SDNode::use_iterator" = type { ptr }

; Function Attrs: mustprogress nounwind uwtable
define linkonce_odr hidden void @_ZN4llvm14iterator_rangeINS_6SDNode12use_iteratorEEC2ES2_S2_(ptr noundef nonnull align 8 dereferenceable(16) %0, ptr %1, ptr %2) unnamed_addr #0 comdat align 2 {
  %4 = alloca %"class.llvm::SDNode::use_iterator", align 8
  %5 = alloca %"class.llvm::SDNode::use_iterator", align 8
  %6 = alloca ptr, align 8
  %7 = getelementptr inbounds nuw %"class.llvm::SDNode::use_iterator", ptr %4, i32 0, i32 0
  store ptr %1, ptr %7, align 8
  %8 = getelementptr inbounds nuw %"class.llvm::SDNode::use_iterator", ptr %5, i32 0, i32 0
  store ptr %2, ptr %8, align 8
  store ptr %0, ptr %6, align 8
  %9 = load ptr, ptr %6, align 8
  %10 = getelementptr inbounds nuw %"class.llvm::iterator_range", ptr %9, i32 0, i32 0
  call void @llvm.memcpy.p0.p0.i64(ptr align 8 %10, ptr align 8 %4, i64 8, i1 false)
  %11 = getelementptr inbounds nuw %"class.llvm::iterator_range", ptr %9, i32 0, i32 1
  call void @llvm.memcpy.p0.p0.i64(ptr align 8 %11, ptr align 8 %5, i64 8, i1 false)
  ret void
}

; Function Attrs: mustprogress nounwind uwtable
define linkonce_odr hidden void @_ZN4llvm6SDNode12use_iteratorC2EPNS_5SDUseE(ptr noundef nonnull align 8 dereferenceable(8) %0, ptr noundef %1) unnamed_addr #0 comdat align 2 {
  %3 = alloca ptr, align 8
  %4 = alloca ptr, align 8
  store ptr %0, ptr %3, align 8
  store ptr %1, ptr %4, align 8
  %5 = load ptr, ptr %3, align 8
  %6 = getelementptr inbounds nuw %"class.llvm::SDNode::use_iterator", ptr %5, i32 0, i32 0
  %7 = load ptr, ptr %4, align 8
  store ptr %7, ptr %6, align 8
  ret void
}

; Function Attrs: mustprogress nounwind uwtable
define linkonce_odr hidden noundef ptr @_ZNK4llvm5SDUse7getNextEv(ptr noundef nonnull align 8 dereferenceable(40) %0) #0 comdat align 2 {
  %2 = alloca ptr, align 8
  store ptr %0, ptr %2, align 8
  %3 = load ptr, ptr %2, align 8
  %4 = getelementptr inbounds nuw %"class.llvm::SDUse", ptr %3, i32 0, i32 3
  %5 = load ptr, ptr %4, align 8
  ret ptr %5
}

; Function Attrs: mustprogress nounwind uwtable
define linkonce_odr hidden noundef ptr @_ZN4llvm5SDUse7getUserEv(ptr noundef nonnull align 8 dereferenceable(40) %0) #0 comdat align 2 {
  %2 = alloca ptr, align 8
  store ptr %0, ptr %2, align 8
  %3 = load ptr, ptr %2, align 8
  %4 = getelementptr inbounds nuw %"class.llvm::SDUse", ptr %3, i32 0, i32 1
  %5 = load ptr, ptr %4, align 8
  ret ptr %5
}

; Function Attrs: mustprogress nounwind uwtable
define linkonce_odr hidden noundef zeroext i1 @_ZNK4llvm6SDNode12use_iteratoreqERKS1_(ptr noundef nonnull align 8 dereferenceable(8) %0, ptr noundef nonnull align 8 dereferenceable(8) %1) #0 comdat align 2 {
  %3 = alloca ptr, align 8
  %4 = alloca ptr, align 8
  store ptr %0, ptr %3, align 8
  store ptr %1, ptr %4, align 8
  %5 = load ptr, ptr %3, align 8
  %6 = getelementptr inbounds nuw %"class.llvm::SDNode::use_iterator", ptr %5, i32 0, i32 0
  %7 = load ptr, ptr %6, align 8
  %8 = load ptr, ptr %4, align 8
  %9 = getelementptr inbounds nuw %"class.llvm::SDNode::use_iterator", ptr %8, i32 0, i32 0
  %10 = load ptr, ptr %9, align 8
  %11 = icmp eq ptr %7, %10
  ret i1 %11
}

; Function Attrs: mustprogress nounwind uwtable
define linkonce_odr { ptr, ptr } @_ZN4llvm10make_rangeINS_6SDNode12use_iteratorEEENS_14iterator_rangeIT_EES4_S4_(ptr %0, ptr %1) #0 comdat {
  %3 = alloca %"class.llvm::iterator_range", align 8
  %4 = alloca %"class.llvm::SDNode::use_iterator", align 8
  %5 = alloca %"class.llvm::SDNode::use_iterator", align 8
  %6 = alloca %"class.llvm::SDNode::use_iterator", align 8
  %7 = alloca %"class.llvm::SDNode::use_iterator", align 8
  %8 = getelementptr inbounds nuw %"class.llvm::SDNode::use_iterator", ptr %4, i32 0, i32 0
  store ptr %0, ptr %8, align 8
  %9 = getelementptr inbounds nuw %"class.llvm::SDNode::use_iterator", ptr %5, i32 0, i32 0
  store ptr %1, ptr %9, align 8
  call void @llvm.memcpy.p0.p0.i64(ptr align 8 %6, ptr align 8 %4, i64 8, i1 false)
  call void @llvm.memcpy.p0.p0.i64(ptr align 8 %7, ptr align 8 %5, i64 8, i1 false)
  %10 = getelementptr inbounds nuw %"class.llvm::SDNode::use_iterator", ptr %6, i32 0, i32 0
  %11 = load ptr, ptr %10, align 8
  %12 = getelementptr inbounds nuw %"class.llvm::SDNode::use_iterator", ptr %7, i32 0, i32 0
  %13 = load ptr, ptr %12, align 8
  call void @_ZN4llvm14iterator_rangeINS_6SDNode12use_iteratorEEC2ES2_S2_(ptr noundef nonnull align 8 dereferenceable(16) %3, ptr %11, ptr %13)
  %14 = load { ptr, ptr }, ptr %3, align 8
  ret { ptr, ptr } %14
}

; Function Attrs: mustprogress nounwind uwtable
define linkonce_odr hidden ptr @_ZN4llvm6SDNode7use_endEv() #0 comdat align 2 {
  %1 = alloca %"class.llvm::SDNode::use_iterator", align 8
  call void @_ZN4llvm6SDNode12use_iteratorC2EPNS_5SDUseE(ptr noundef nonnull align 8 dereferenceable(8) %1, ptr noundef null)
  %2 = getelementptr inbounds nuw %"class.llvm::SDNode::use_iterator", ptr %1, i32 0, i32 0
  %3 = load ptr, ptr %2, align 8
  ret ptr %3
}

; Function Attrs: mustprogress nounwind uwtable
define linkonce_odr hidden ptr @_ZNK4llvm6SDNode9use_beginEv(ptr noundef nonnull align 8 dereferenceable(88) %0) #0 comdat align 2 {
  %2 = alloca %"class.llvm::SDNode::use_iterator", align 8
  %3 = alloca ptr, align 8
  store ptr %0, ptr %3, align 8
  %4 = load ptr, ptr %3, align 8
  %5 = getelementptr inbounds nuw %"class.llvm::SDNode", ptr %4, i32 0, i32 9
  %6 = load ptr, ptr %5, align 8
  call void @_ZN4llvm6SDNode12use_iteratorC2EPNS_5SDUseE(ptr noundef nonnull align 8 dereferenceable(8) %2, ptr noundef %6)
  %7 = getelementptr inbounds nuw %"class.llvm::SDNode::use_iterator", ptr %2, i32 0, i32 0
  %8 = load ptr, ptr %7, align 8
  ret ptr %8
}

; Function Attrs: mustprogress nounwind uwtable
define linkonce_odr hidden noundef nonnull align 8 dereferenceable(12) ptr @_ZNK4llvm5SDUsecvRKNS_7SDValueEEv(ptr noundef nonnull align 8 dereferenceable(40) %0) #0 comdat align 2 {
  %2 = alloca ptr, align 8
  store ptr %0, ptr %2, align 8
  %3 = load ptr, ptr %2, align 8
  %4 = getelementptr inbounds nuw %"class.llvm::SDUse", ptr %3, i32 0, i32 0
  ret ptr %4
}

; Function Attrs: mustprogress nounwind uwtable
define linkonce_odr hidden noundef nonnull align 8 dereferenceable(8) ptr @_ZN4llvm6SDNode12use_iteratorppEv(ptr noundef nonnull align 8 dereferenceable(8) %0) #0 comdat align 2 {
  %2 = alloca ptr, align 8
  store ptr %0, ptr %2, align 8
  %3 = load ptr, ptr %2, align 8
  %4 = getelementptr inbounds nuw %"class.llvm::SDNode::use_iterator", ptr %3, i32 0, i32 0
  %5 = load ptr, ptr %4, align 8
  %6 = call noundef ptr @_ZNK4llvm5SDUse7getNextEv(ptr noundef nonnull align 8 dereferenceable(40) %5)
  %7 = getelementptr inbounds nuw %"class.llvm::SDNode::use_iterator", ptr %3, i32 0, i32 0
  store ptr %6, ptr %7, align 8
  ret ptr %3
}

; Function Attrs: mustprogress nounwind uwtable
define linkonce_odr hidden noundef ptr @_ZNK4llvm6SDNode12use_iteratordeEv(ptr noundef nonnull align 8 dereferenceable(8) %0) #0 comdat align 2 {
  %2 = alloca ptr, align 8
  store ptr %0, ptr %2, align 8
  %3 = load ptr, ptr %2, align 8
  %4 = getelementptr inbounds nuw %"class.llvm::SDNode::use_iterator", ptr %3, i32 0, i32 0
  %5 = load ptr, ptr %4, align 8
  %6 = call noundef ptr @_ZN4llvm5SDUse7getUserEv(ptr noundef nonnull align 8 dereferenceable(40) %5)
  ret ptr %6
}

; Function Attrs: mustprogress nounwind uwtable
define linkonce_odr hidden noundef zeroext i1 @_ZNK4llvm6SDNode12use_iteratorneERKS1_(ptr noundef nonnull align 8 dereferenceable(8) %0, ptr noundef nonnull align 8 dereferenceable(8) %1) #0 comdat align 2 {
  %3 = alloca ptr, align 8
  %4 = alloca ptr, align 8
  store ptr %0, ptr %3, align 8
  store ptr %1, ptr %4, align 8
  %5 = load ptr, ptr %3, align 8
  %6 = load ptr, ptr %4, align 8
  %7 = call noundef zeroext i1 @_ZNK4llvm6SDNode12use_iteratoreqERKS1_(ptr noundef nonnull align 8 dereferenceable(8) %5, ptr noundef nonnull align 8 dereferenceable(8) %6)
  %8 = xor i1 %7, true
  ret i1 %8
}

; Function Attrs: mustprogress nounwind uwtable
define linkonce_odr hidden ptr @_ZNK4llvm14iterator_rangeINS_6SDNode12use_iteratorEE3endEv(ptr noundef nonnull align 8 dereferenceable(16) %0) #0 comdat align 2 {
  %2 = alloca %"class.llvm::SDNode::use_iterator", align 8
  %3 = alloca ptr, align 8
  store ptr %0, ptr %3, align 8
  %4 = load ptr, ptr %3, align 8
  %5 = getelementptr inbounds nuw %"class.llvm::iterator_range", ptr %4, i32 0, i32 1
  call void @llvm.memcpy.p0.p0.i64(ptr align 8 %2, ptr align 8 %5, i64 8, i1 false)
  %6 = getelementptr inbounds nuw %"class.llvm::SDNode::use_iterator", ptr %2, i32 0, i32 0
  %7 = load ptr, ptr %6, align 8
  ret ptr %7
}

; Function Attrs: mustprogress nounwind uwtable
define linkonce_odr hidden ptr @_ZNK4llvm14iterator_rangeINS_6SDNode12use_iteratorEE5beginEv(ptr noundef nonnull align 8 dereferenceable(16) %0) #0 comdat align 2 {
  %2 = alloca %"class.llvm::SDNode::use_iterator", align 8
  %3 = alloca ptr, align 8
  store ptr %0, ptr %3, align 8
  %4 = load ptr, ptr %3, align 8
  %5 = getelementptr inbounds nuw %"class.llvm::iterator_range", ptr %4, i32 0, i32 0
  call void @llvm.memcpy.p0.p0.i64(ptr align 8 %2, ptr align 8 %5, i64 8, i1 false)
  %6 = getelementptr inbounds nuw %"class.llvm::SDNode::use_iterator", ptr %2, i32 0, i32 0
  %7 = load ptr, ptr %6, align 8
  ret ptr %7
}

; Function Attrs: mustprogress nounwind uwtable
define linkonce_odr hidden { ptr, ptr } @_ZN4llvm6SDNode4usesEv(ptr noundef nonnull align 8 dereferenceable(88) %0) #0 comdat align 2 {
  %2 = alloca %"class.llvm::iterator_range", align 8
  %3 = alloca ptr, align 8
  %4 = alloca %"class.llvm::SDNode::use_iterator", align 8
  %5 = alloca %"class.llvm::SDNode::use_iterator", align 8
  store ptr %0, ptr %3, align 8
  %6 = load ptr, ptr %3, align 8
  %7 = call ptr @_ZNK4llvm6SDNode9use_beginEv(ptr noundef nonnull align 8 dereferenceable(88) %6)
  %8 = getelementptr inbounds nuw %"class.llvm::SDNode::use_iterator", ptr %4, i32 0, i32 0
  store ptr %7, ptr %8, align 8
  %9 = call ptr @_ZN4llvm6SDNode7use_endEv()
  %10 = getelementptr inbounds nuw %"class.llvm::SDNode::use_iterator", ptr %5, i32 0, i32 0
  store ptr %9, ptr %10, align 8
  %11 = getelementptr inbounds nuw %"class.llvm::SDNode::use_iterator", ptr %4, i32 0, i32 0
  %12 = load ptr, ptr %11, align 8
  %13 = getelementptr inbounds nuw %"class.llvm::SDNode::use_iterator", ptr %5, i32 0, i32 0
  %14 = load ptr, ptr %13, align 8
  %15 = call { ptr, ptr } @_ZN4llvm10make_rangeINS_6SDNode12use_iteratorEEENS_14iterator_rangeIT_EES4_S4_(ptr %12, ptr %14)
  %16 = getelementptr inbounds nuw { ptr, ptr }, ptr %2, i32 0, i32 0
  %17 = extractvalue { ptr, ptr } %15, 0
  store ptr %17, ptr %16, align 8
  %18 = getelementptr inbounds nuw { ptr, ptr }, ptr %2, i32 0, i32 1
  %19 = extractvalue { ptr, ptr } %15, 1
  store ptr %19, ptr %18, align 8
  %20 = load { ptr, ptr }, ptr %2, align 8
  ret { ptr, ptr } %20
}

; Function Attrs: mustprogress nounwind uwtable
define linkonce_odr hidden noundef ptr @_ZNK4llvm7SDValue7getNodeEv(ptr noundef nonnull align 8 dereferenceable(12) %0) #0 comdat align 2 {
  %2 = alloca ptr, align 8
  store ptr %0, ptr %2, align 8
  %3 = load ptr, ptr %2, align 8
  %4 = getelementptr inbounds nuw %"class.llvm::SDValue", ptr %3, i32 0, i32 0
  %5 = load ptr, ptr %4, align 8
  ret ptr %5
}

; Function Attrs: mustprogress nounwind uwtable
define linkonce_odr hidden noundef nonnull align 8 dereferenceable(12) ptr @_ZNK4llvm6SDNode10getOperandEj(ptr noundef nonnull align 8 dereferenceable(88) %0, i32 noundef %1) #0 comdat align 2 {
  %3 = alloca ptr, align 8
  %4 = alloca i32, align 4
  store ptr %0, ptr %3, align 8
  store i32 %1, ptr %4, align 4
  %5 = load ptr, ptr %3, align 8
  %6 = getelementptr inbounds nuw %"class.llvm::SDNode", ptr %5, i32 0, i32 7
  %7 = load ptr, ptr %6, align 8
  %8 = load i32, ptr %4, align 4
  %9 = zext i32 %8 to i64
  %10 = getelementptr inbounds %"class.llvm::SDUse", ptr %7, i64 %9
  %11 = call noundef nonnull align 8 dereferenceable(12) ptr @_ZNK4llvm5SDUsecvRKNS_7SDValueEEv(ptr noundef nonnull align 8 dereferenceable(40) %10)
  ret ptr %11
}

; Function Attrs: mustprogress nounwind uwtable
define linkonce_odr hidden noundef i32 @_ZNK4llvm6SDNode9getOpcodeEv(ptr noundef nonnull align 8 dereferenceable(88) %0) #0 comdat align 2 {
  %2 = alloca ptr, align 8
  store ptr %0, ptr %2, align 8
  %3 = load ptr, ptr %2, align 8
  %4 = getelementptr inbounds nuw %"class.llvm::SDNode", ptr %3, i32 0, i32 2
  %5 = load i32, ptr %4, align 8
  ret i32 %5
}

; Function Attrs: mustprogress nounwind uwtable
define internal noundef zeroext i1 @_ZL9useSinCosPN4llvm6SDNodeE(ptr noundef %0) #0 {
  %2 = alloca i1, align 1
  %3 = alloca ptr, align 8
  %4 = alloca i32, align 4
  %5 = alloca %"class.llvm::SDValue", align 8
  %6 = alloca ptr, align 8
  %7 = alloca %"class.llvm::iterator_range", align 8
  %8 = alloca %"class.llvm::SDNode::use_iterator", align 8
  %9 = alloca %"class.llvm::SDNode::use_iterator", align 8
  %10 = alloca ptr, align 8
  store ptr %0, ptr %3, align 8
  %11 = load ptr, ptr %3, align 8
  %12 = call noundef i32 @_ZNK4llvm6SDNode9getOpcodeEv(ptr noundef nonnull align 8 dereferenceable(88) %11)
  %13 = icmp eq i32 %12, 247
  %14 = select i1 %13, i32 248, i32 247
  store i32 %14, ptr %4, align 4
  %15 = load ptr, ptr %3, align 8
  %16 = call noundef nonnull align 8 dereferenceable(12) ptr @_ZNK4llvm6SDNode10getOperandEj(ptr noundef nonnull align 8 dereferenceable(88) %15, i32 noundef 0)
  call void @llvm.memcpy.p0.p0.i64(ptr align 8 %5, ptr align 8 %16, i64 16, i1 false)
  %17 = call noundef ptr @_ZNK4llvm7SDValue7getNodeEv(ptr noundef nonnull align 8 dereferenceable(12) %5)
  %18 = call { ptr, ptr } @_ZN4llvm6SDNode4usesEv(ptr noundef nonnull align 8 dereferenceable(88) %17)
  %19 = getelementptr inbounds nuw { ptr, ptr }, ptr %7, i32 0, i32 0
  %20 = extractvalue { ptr, ptr } %18, 0
  store ptr %20, ptr %19, align 8
  %21 = getelementptr inbounds nuw { ptr, ptr }, ptr %7, i32 0, i32 1
  %22 = extractvalue { ptr, ptr } %18, 1
  store ptr %22, ptr %21, align 8
  store ptr %7, ptr %6, align 8
  %23 = load ptr, ptr %6, align 8
  %24 = call ptr @_ZNK4llvm14iterator_rangeINS_6SDNode12use_iteratorEE5beginEv(ptr noundef nonnull align 8 dereferenceable(16) %23)
  %25 = getelementptr inbounds nuw %"class.llvm::SDNode::use_iterator", ptr %8, i32 0, i32 0
  store ptr %24, ptr %25, align 8
  %26 = load ptr, ptr %6, align 8
  %27 = call ptr @_ZNK4llvm14iterator_rangeINS_6SDNode12use_iteratorEE3endEv(ptr noundef nonnull align 8 dereferenceable(16) %26)
  %28 = getelementptr inbounds nuw %"class.llvm::SDNode::use_iterator", ptr %9, i32 0, i32 0
  store ptr %27, ptr %28, align 8
  br label %29

29:                                               ; preds = %48, %1
  %30 = call noundef zeroext i1 @_ZNK4llvm6SDNode12use_iteratorneERKS1_(ptr noundef nonnull align 8 dereferenceable(8) %8, ptr noundef nonnull align 8 dereferenceable(8) %9)
  br i1 %30, label %31, label %50

31:                                               ; preds = %29
  %32 = call noundef ptr @_ZNK4llvm6SDNode12use_iteratordeEv(ptr noundef nonnull align 8 dereferenceable(8) %8)
  store ptr %32, ptr %10, align 8
  %33 = load ptr, ptr %10, align 8
  %34 = load ptr, ptr %3, align 8
  %35 = icmp eq ptr %33, %34
  br i1 %35, label %36, label %37

36:                                               ; preds = %31
  br label %48

37:                                               ; preds = %31
  %38 = load ptr, ptr %10, align 8
  %39 = call noundef i32 @_ZNK4llvm6SDNode9getOpcodeEv(ptr noundef nonnull align 8 dereferenceable(88) %38)
  %40 = load i32, ptr %4, align 4
  %41 = icmp eq i32 %39, %40
  br i1 %41, label %46, label %42

42:                                               ; preds = %37
  %43 = load ptr, ptr %10, align 8
  %44 = call noundef i32 @_ZNK4llvm6SDNode9getOpcodeEv(ptr noundef nonnull align 8 dereferenceable(88) %43)
  %45 = icmp eq i32 %44, 285
  br i1 %45, label %46, label %47

46:                                               ; preds = %42, %37
  store i1 true, ptr %2, align 1
  br label %51

47:                                               ; preds = %42
  br label %48

48:                                               ; preds = %47, %36
  %49 = call noundef nonnull align 8 dereferenceable(8) ptr @_ZN4llvm6SDNode12use_iteratorppEv(ptr noundef nonnull align 8 dereferenceable(8) %8)
  br label %29

50:                                               ; preds = %29
  store i1 false, ptr %2, align 1
  br label %51

51:                                               ; preds = %50, %46
  %52 = load i1, ptr %2, align 1
  ret i1 %52
}