; Function Attrs: mustprogress nofree norecurse nosync nounwind willreturn memory(read, inaccessiblemem: none) uwtable
define internal fastcc noundef zeroext i1 @_ZL9useSinCosPN4llvm6SDNodeE(ptr noundef readonly %0) unnamed_addr #6 {
  %2 = getelementptr inbounds nuw i8, ptr %0, i64 24
  %3 = load i32, ptr %2, align 8
  %4 = icmp eq i32 %3, 247
  %5 = select i1 %4, i32 248, i32 247
  %6 = getelementptr inbounds nuw i8, ptr %0, i64 40
  %7 = load ptr, ptr %6, align 8
  %.sroa.015.0.copyload = load ptr, ptr %7, align 8
  %8 = getelementptr inbounds nuw i8, ptr %.sroa.015.0.copyload, i64 56
  %.sroa.011.017 = load ptr, ptr %8, align 8
  %.not = icmp eq ptr %.sroa.011.017, null
  br i1 %.not, label %._crit_edge, label %.lr.ph

.lr.ph:                                           ; preds = %1, %17
  %.sroa.011.018 = phi ptr [ %.sroa.011.0, %17 ], [ %.sroa.011.017, %1 ]
  %9 = getelementptr inbounds nuw i8, ptr %.sroa.011.018, i64 16
  %10 = load ptr, ptr %9, align 8
  %11 = icmp eq ptr %10, %0
  br i1 %11, label %17, label %12

12:                                               ; preds = %.lr.ph
  %13 = getelementptr inbounds nuw i8, ptr %10, i64 24
  %14 = load i32, ptr %13, align 8
  %15 = icmp eq i32 %14, %5
  %16 = icmp eq i32 %14, 285
  %or.cond = or i1 %15, %16
  br i1 %or.cond, label %._crit_edge, label %17

17:                                               ; preds = %12, %.lr.ph
  %18 = getelementptr inbounds nuw i8, ptr %.sroa.011.018, i64 32
  %.sroa.011.0 = load ptr, ptr %18, align 8
  %.not21 = icmp eq ptr %.sroa.011.0, null
  br i1 %.not21, label %._crit_edge, label %.lr.ph

._crit_edge:                                      ; preds = %12, %17, %1
  %.lcssa = phi i1 [ false, %1 ], [ false, %17 ], [ true, %12 ]
  ret i1 %.lcssa
}